(dp0
S'CollaborativeFiltering'
p1
(lp2
(dp3
S'vivalt-learn--r, false'
p4
I61
sS'whoburg-10NN_weighted-r, false'
p5
I3
sS'aileenchen-matrix_factorization2-r, false'
p6
I27
sS'nanhengwu-knn-r, false'
p7
I4
sS'whoburg-10NN_baseline-r, false'
p8
I5
sS'kenghao-matrix_em_k10-r, false'
p9
I12
sS'nanhengwu-mf_1m-r, false'
p10
I67
sS'jjariyas-svd-r7, false'
p11
I15
sS'whoburg-ALS_K1-r, false'
p12
I23
sS'aileenchen-matrix_factorizationk5-r, false'
p13
I26
sS'jjariyas-svd-k40, false'
p14
I29
sS'nanhengwu-mf-r, false'
p15
I31
sS'pp-svdEM-r, false'
p16
I34
sS'vivalt-KNN-learner-r, false'
p17
I36
sS'jjariyas-svd-r5, false'
p18
I39
sS'mattg-impute-svd-em-r, false'
p19
I85
sS'jjariyas-svd-k20, false'
p20
I42
sS'xterm-knnsvd_shrunk_unbias_rev-r, false'
p21
I43
sS'kerenl-center_svd_em-r, false'
p22
I47
sS'nanhengwu-kkn-r, false'
p23
I50
sS'sac-svd-r, false'
p24
I53
sS'jjariyas-svd-r4, false'
p25
I54
sS'aileenchen-matrix_factorizationk3-r, false'
p26
I55
sS'vivalt-learner--r, false'
p27
I56
sS'mean_movie_rating_ruby, false'
p28
I57
sS'jjariyas-svd-r3, false'
p29
I58
sS'aileenchen-matrix_factorization100k-r, false'
p30
I59
sS'jychoi84-MF_SVD_EM_K20, false'
p31
I60
sS'vivalt-learn-r, false'
p32
I62
sS'mean_user_rating_ruby, false'
p33
I63
sS'vivalt-learner3-r, false'
p34
I87
sS'cberner-KNNImproved-r, false'
p35
I65
sS'lester-mf_rsgd-r, false'
p36
I68
sS'vivalt-learning-r, false'
p37
I69
sS'vivalt-learner-KNN-r, false'
p38
I71
sS'kenghao-matrix_em_k10_v2-r, false'
p39
I75
sS'vivalt-learner2-r, false'
p40
I79
sS'Svetoslav_Kolev-KNN, false'
p41
I82
sS'aileenchen-kkn-r, false'
p42
I83
sS'akshayk-svd_missing_values-r, false'
p43
I84
sS'jjariyas-svdj-r, false'
p44
I72
sS'bkerkez-SVDescent40k-r, false'
p45
I1
sS'whoburg-5NN_weighted-r, false'
p46
I6
sS'whoburg-ALS_K5-r, false'
p47
I7
sS'jychoi84-KNN-r(2), false'
p48
I8
sS'nanhengwu-kkn_K10_new-r, false'
p49
I2
sS'jjariyas-svd-k5, false'
p50
I9
sS'kenghao-knn_k50-r, false'
p51
I10
sS'bkerkez-SVDescent2-r, false'
p52
I11
sS'cberner-KNN-r, false'
p53
I13
sS'nanhengwu-kkn_K10-r, false'
p54
I14
sS'aude-hw4_pb2, false'
p55
I35
sS'nanhengwu-mf_for1m2-r, false'
p56
I16
sS'Svetoslav_Kolev-KNN2, false'
p57
I17
sS'mattg-knn-r, false'
p58
I18
sS'bkerkez-SVDescent40K60-r, false'
p59
I19
sS'lester-shrunk_item_mean-r, false'
p60
I20
sS'jjariyas-svd-k10, false'
p61
I21
sS'ppyapali-svd, false'
p62
I22
sS'mjanderson-knn-r, false'
p63
I24
sS'bkerkez-SVDescent-r, false'
p64
I25
sS'vivalt-KNN-r, false'
p65
I76
sS'akshayk-knn-cosine-distance-r, false'
p66
I28
sS'aude-pb1, false'
p67
I30
sS'nanhengwu-kkn-r2, false'
p68
I32
sS'Svetoslav_Kolev-KNN1, false'
p69
I33
sS'whoburg-ALS_K3_lambda2-r, false'
p70
I77
sS'kernel-center_shrink_knn_svd_em-r, false'
p71
I37
sS'mjanderson-matrix-factorization-r, false'
p72
I38
sS'vivalt-learner-r, false'
p73
I40
sS'bkerkez-SVDescentK20EP60-r, false'
p74
I41
sS'vivalt-learner4-r, false'
p75
I44
sS'jjariyas-svd-r8, false'
p76
I45
sS'jjariyas-svd-k10-2, false'
p77
I46
sS'bkerkez-SVDescent20KMore-r, false'
p78
I48
sS'jjariyas-svd-r6, false'
p79
I51
sS'aileenchen-matrix_factorization1m-r, false'
p80
I52
sS'xterm-knnsvd_shrunk_unbias-r, false'
p81
I64
sS'cberner-SVD-r, false'
p82
I49
sS'lester-shrunk_item_mean-testSunday, false'
p83
I70
sS'vivalt-learning2-r, false'
p84
I73
sS'whoburg-ALS_K3-r, false'
p85
I74
sS'vivalt-learner5-r, false'
p86
I91
sS'mean_user_rating_ruby_2, false'
p87
I78
sS'jychoi84-KNN-r, false'
p88
I80
sS'sac-svd-check-r, false'
p89
I81
sS'localMTL, false'
p90
I86
sS'nanhengwu-kkn_K3_new-r, false'
p91
I66
sS'karthikj, false'
p92
I88
sS'aileenchen-matrix_factorizationk10-r, false'
p93
I89
sS'bkerkez-SVDescentK20-r, false'
p94
I90
sa(dp95
S'eachmovie'
p96
I1
sS'collaborativefiltering-sample'
p97
I2
sS'movielens100k'
p98
I4
sS'movielens1m'
p99
I5
sS'eachmovie-1to5'
p100
I6
sS'cs281amovielens'
p101
I3
sasS'OnlineLearningMulticlass'
p102
(lp103
(dp104
S'voted perceptron, false'
p105
I1
sS'minimalist-boost, false'
p106
I16
sS'Vote_weka_nominal, false'
p107
I13
sS'committee, false'
p108
I9
sS'logloss-perceptron, false'
p109
I11
sS'online-batch-wrapper:svmlight_multiclass, false'
p110
I10
sS'RotationForest_weka_nominal, false'
p111
I12
sS'simple-naive-bayes, false'
p112
I2
sS'online-perceptron, false'
p113
I3
sS'averaged perceptron, false'
p114
I14
sS'online-mira, false'
p115
I4
sS'LogitBoost_weka_nominal, false'
p116
I15
sS'online-batch-wrapper:minimalist-boost, false'
p117
I6
sS'general-perceptron, false'
p118
I5
sS'GNB, false'
p119
I7
sS'mira-python, false'
p120
I8
sS'winnow, false'
p121
I17
sa(dp122
S'NY Traffic R11 2008 7 days popular roads normalized with sum'
p123
I1
sS'breast-cancer-online-learning'
p124
I2
sS'credit-screening-online-learning'
p125
I3
sS'online-multiclass-sample'
p126
I4
sS'mushroom-online-learning'
p127
I5
sS'molecular-biology-splice-online-learning'
p128
I6
sS'NY Traffic R11 2008 Weekday/Weekend popular roads normalized'
p129
I7
sS'waveform-online-learning'
p130
I8
sS'online-statlog-shuttle'
p131
I9
sS'online-letter-recognition'
p132
I10
sasS'Regression'
p133
(lp134
(dp135
S'RegressionByDiscretization_weka_numeric, false'
p136
I1
sS'DecisionStump_weka_numeric, false'
p137
I2
sS'EnsembleSelection_weka_numeric, false'
p138
I3
sS'Bayesian Treed Gaussian Process With Linear Limiting Model, false'
p139
I4
sS'RandomSubSpace_weka_numeric, false'
p140
I5
sS'LinearRegression_weka_numeric, false'
p141
I6
sS'Bagging_weka_numeric, true'
p142
I30
sS'KStar_weka_numeric, false'
p143
I8
sS'REPTree_weka_numeric, false'
p144
I9
sS'Linear Regression(beta), true'
p145
I10
sS'LeastMedSq_weka_numeric, false'
p146
I11
sS'MultiScheme_weka_numeric, false'
p147
I12
sS'svmlight_regression, false'
p148
I13
sS'RBFNetwork_weka_numeric, true'
p149
I14
sS'pmtk linreg LS, false'
p150
I15
sS'IBk_weka_numeric, false'
p151
I16
sS'Linear Regression(beta), false'
p152
I17
sS'AdditiveRegression_weka_numeric, false'
p153
I18
sS'RBFNetwork_weka_numeric, false'
p154
I19
sS'Bayesian Treed Linear Model, false'
p155
I20
sS'Bayesian Treed Gaussian Process, false'
p156
I21
sS'Linear Regression - Regularized (beta), false'
p157
I27
sS'CVParameterSelection_weka_numeric, false'
p158
I23
sS'DecisionTable_weka_numeric, false'
p159
I24
sS'IsotonicRegression_weka_numeric, false'
p160
I33
sS'MultilayerPerceptron_weka_numeric, false'
p161
I26
sS'SimpleLinearRegression_weka_numeric, true'
p162
I22
sS'svmlight_regression, true'
p163
I28
sS'GaussianProcesses_weka_numeric, false'
p164
I29
sS'Linear Regression - Regularized (beta), true'
p165
I7
sS'ZeroR_weka_numeric, false'
p166
I31
sS'AdditiveRegression_weka_numeric, true'
p167
I32
sS'SimpleLinearRegression_weka_numeric, false'
p168
I25
sS'LWL_weka_numeric, false'
p169
I34
sS'REPTree_weka_numeric, true'
p170
I35
sS'Stacking_weka_numeric, false'
p171
I36
sS'Bagging_weka_numeric, false'
p172
I37
sS'Vote_weka_numeric, false'
p173
I38
sS'ConjunctiveRule_weka_numeric, false'
p174
I39
sS'Octave Ridge (L2) Regression, false'
p175
I40
sS'PaceRegression_weka_numeric, false'
p176
I41
sS'RandomSubSpace_weka_numeric, true'
p177
I42
sS'pmtk linreg L2, false'
p178
I43
sa(dp179
S'easy-linear'
p180
I22
sS'blakhol_rg_test_5'
p181
I4
sS'test dataset 01'
p182
I19
sS'auto-mpg'
p183
I8
sS'neut_0.raw'
p184
I9
sS'cpu-performance'
p185
I10
sS'formatted2_subset'
p186
I11
sS'regression-sample'
p187
I24
sS'Sales 7756-2'
p188
I15
sS'housing'
p189
I17
sS'ya-2'
p190
I20
sS'bow-regression'
p191
I21
sS'Teste'
p192
I27
sS'MeDIP_HEK'
p193
I28
sS'servo'
p194
I1
sS'dans_rare_events_1'
p195
I2
sS'interaction-regression-test'
p196
I3
sS'Ya text param'
p197
I5
sS'etf300-fractal-f20-126'
p198
I14
sS'echocardiogram'
p199
I7
sS'web-graph-data-2007'
p200
I30
sS'sleepdata'
p201
I13
sS'autos'
p202
I6
sS'liver-disorders'
p203
I16
sS'simple-regression-test'
p204
I18
sS'bow-regression (medium)'
p205
I12
sS'neut_1.raw'
p206
I23
sS'project_dr01_model_set_01'
p207
I25
sS'blakhol_rg_test_5000'
p208
I26
sS'X-A0'
p209
I29
sasS'SequenceTagging'
p210
(lp211
(dp212
S'sequor-plain, false'
p213
I1
sS'miralium, false'
p214
I6
sS'crfpp-notemplate, false'
p215
I3
sS'svm-hmm, false'
p216
I4
sS'miralium_bigram, false'
p217
I5
sS'crfsgd-notemplate, false'
p218
I2
sS'crfpp, false'
p219
I7
sS'ner-de-test, false'
p220
I8
sS'crfsgd, false'
p221
I12
sS'wapiti, false'
p222
I10
sS'crfsgd, true'
p223
I11
sS'sequor, false'
p224
I9
sa(dp225
S'ner-conll2003-deu'
p226
I1
sS'sequence-conll-sample'
p227
I2
sS'ner-conll2003-eng'
p228
I3
sS'nlg-grec10-eng'
p229
I4
sS'pos-conll2000'
p230
I5
sS'srl-media1-fra'
p231
I6
sS'ner-conll-2002-esp'
p232
I7
sS'jdpa-bnp-pos BIO'
p233
I8
sS'chunking-conll2000'
p234
I12
sS'ner-ester1-fra'
p235
I10
sS'grippro'
p236
I11
sS'NikhilDatasetTokenWithPTBT'
p237
I9
sasS'SemiSupervisedMulticlass'
p238
(lp239
(dp240
S'semi-supervised-naive-bayes-baseline, false'
p241
I1
sa(dp242
S'semi-supervised-multiclass-sample'
p243
I1
sasS'BanditMulticlass'
p244
(lp245
(dp246
S'banditron, false'
p247
I1
sS'bandit-random, false'
p248
I2
sS'bandit-yes-distrib, false'
p249
I3
sa(dp250
S'bandit-utterance-classification-asr'
p251
I1
sS'bandit-shuttle'
p252
I2
sS'bandit-multiclass-sample'
p253
I3
sS'bandit-utterance-classification-manual'
p254
I4
sasS'DocumentClassification'
p255
(lp256
(dp257
S'dictionary-method-language, false'
p258
I4
sS'libtextcat-2.2-wrap, false'
p259
I5
sS'icsiboost-bigram, false'
p260
I2
sS'icsiboost, false'
p261
I1
sS'boostexter-bigram, false'
p262
I3
sS'document-classification-majority, false'
p263
I6
sa(dp264
S'wordlists-language'
p265
I1
sS'20news-18828'
p266
I4
sS'webkb-4-universities-wisconsin-test'
p267
I2
sS'document-classification-sample'
p268
I3
sasS'MulticlassClassification'
p269
(lp270
(dp271
S'J48graft_weka_nominal, false'
p272
I1
sS'svmlight-rbf, true'
p273
I2
sS'RandomTree_weka_nominal, false'
p274
I3
sS'SimpleLogistic_weka_nominal, false'
p275
I4
sS'BayesNet_weka_nominal, true'
p276
I5
sS'FLR_weka_nominal, false'
p277
I6
sS'PNB3, false'
p278
I7
sS'Auto_MLP, false'
p279
I8
sS'BayesNet_weka_nominal, false'
p280
I9
sS'RandomSubSpace_weka_nominal, false'
p281
I10
sS'ADTree_weka_nominal, false'
p282
I11
sS'Bagging_weka_nominal, false'
p283
I112
sS'LogitBoost_weka_nominal, false'
p284
I13
sS'amal-run, false'
p285
I14
sS'Logistic_weka_nominal, false'
p286
I15
sS'MultiClassClassifier_weka_nominal, false'
p287
I16
sS'NaiveBayes_weka_nominal, false'
p288
I17
sS'Naive Bayes - Eugene Ma2, false'
p289
I18
sS'HyperPipes_weka_nominal, true'
p290
I19
sS'DecisionStump_weka_nominal, false'
p291
I20
sS'simple-naive-bayes-elo, false'
p292
I21
sS'NBTree_weka_nominal, false'
p293
I22
sS'MultiScheme_weka_nominal, false'
p294
I23
sS'RandomCommittee_weka_nominal, false'
p295
I24
sS'DMNBtext_weka_nominal, false'
p296
I25
sS'nn-ruby, true'
p297
I26
sS'Decorate_weka_nominal, false'
p298
I27
sS'JRip_weka_nominal, false'
p299
I28
sS'GNB, true'
p300
I29
sS'FT_weka_nominal, false'
p301
I30
sS'svmlight_multiclass, false'
p302
I31
sS'SMO_weka_nominal, true'
p303
I32
sS'svmlight_multiclass-linear, false'
p304
I55
sS'general-perceptron, false'
p305
I34
sS'AutoMLP_7, false'
p306
I35
sS'online-mira, false'
p307
I36
sS'online-batch-wrapper:minimalist-boost, false'
p308
I42
sS'AutoMLP, false'
p309
I38
sS'Naive Bayes - Eugene Ma, false'
p310
I39
sS'LWL_weka_nominal, false'
p311
I40
sS'AutoMLP_4, false'
p312
I41
sS'PNB, false'
p313
I43
sS'IBk_weka_nominal, false'
p314
I44
sS'SMO_weka_nominal, false'
p315
I45
sS'NNge_weka_nominal, false'
p316
I46
sS'LMT_weka_nominal, false'
p317
I47
sS'minimalist-boost, false'
p318
I48
sS'AutoMLP_5, false'
p319
I49
sS'CVParameterSelection_weka_nominal, false'
p320
I50
sS'minimalist-boost, true'
p321
I51
sS'Dagging_weka_nominal, false'
p322
I52
sS'AdaBoostM1_weka_nominal, false'
p323
I53
sS'svmlight_multiclass-linear, true'
p324
I54
sS'KStar_weka_nominal, false'
p325
I62
sS'ConjunctiveRule_weka_nominal, false'
p326
I56
sS'ZeroR_weka_nominal, false'
p327
I57
sS'GNB, false'
p328
I58
sS'FilteredClassifier_weka_nominal, true'
p329
I59
sS'AutoMLP_6, false'
p330
I60
sS'committee, false'
p331
I61
sS'mira-python-normalize, false'
p332
I96
sS'Vote_weka_nominal, false'
p333
I63
sS'svmlight-linear, false'
p334
I64
sS'AutoMLP_2, false'
p335
I65
sS'PMTK Logistic Regression, false'
p336
I66
sS'perceptron_by_jake, false'
p337
I67
sS'boostexter, false'
p338
I68
sS'VotedPerceptron_weka_nominal, false'
p339
I69
sS'PMTK Kernelized L1 Logistic Regression, false'
p340
I70
sS'svmlight-linear2, true'
p341
I71
sS'EnsembleSelection_weka_nominal, false'
p342
I72
sS'ThresholdSelector_weka_nominal, false'
p343
I73
sS'online-perceptron, false'
p344
I74
sS'DecisionTable_weka_nominal, false'
p345
I75
sS'reverse-naive-bayes, false'
p346
I76
sS'Naive Bayes - Eugene Ma, true'
p347
I77
sS'OneR_weka_nominal, true'
p348
I78
sS'RandomForest_weka_nominal, false'
p349
I79
sS'PMTK L1 Multiclass Logistic Regression, false'
p350
I80
sS'PART_weka_nominal, false'
p351
I81
sS'AutoMLP_3, false'
p352
I82
sS'MultilayerPerceptron_weka_nominal, false'
p353
I118
sS'logloss-perceptron, false'
p354
I84
sS'averaged perceptron, false'
p355
I85
sS'FilteredClassifier_weka_nominal, false'
p356
I86
sS'Ridor_weka_nominal, true'
p357
I87
sS'AutoMLP_8, false'
p358
I88
sS'perceptron_by_jake, true'
p359
I89
sS'RandomTree_weka_nominal, true'
p360
I33
sS'RacedIncrementalLogitBoost_weka_nominal, false'
p361
I90
sS'simple-naive-bayes, true'
p362
I91
sS'Stacking_weka_nominal, false'
p363
I121
sS'mira-python, false'
p364
I93
sS'Logistic_weka_nominal, true'
p365
I94
sS'OneR_weka_nominal, false'
p366
I106
sS'REPTree_weka_nominal, false'
p367
I95
sS'BFTree_weka_nominal, false'
p368
I97
sS'LogitBoost_weka_nominal, true'
p369
I98
sS'ClassificationViaClustering_weka_nominal, false'
p370
I100
sS'svmlight-rbf, false'
p371
I101
sS'winnow, false'
p372
I102
sS'PNB2, false'
p373
I103
sS'MultilayerPerceptron_weka_nominal, true'
p374
I125
sS'BayesianLogisticRegression_weka_nominal, false'
p375
I105
sS'Ridor_weka_nominal, false'
p376
I37
sS'tinyclassifier-perceptron-tuning, true'
p377
I107
sS'J48_weka_nominal, false'
p378
I108
sS'pmtk logreg L2, false'
p379
I109
sS'reverse-naive-bayes, true'
p380
I110
sS'PMTK DiscrimAnalysis, false'
p381
I111
sS'IB1_weka_nominal2, false'
p382
I12
sS'RBFNetwork_weka_nominal, false'
p383
I113
sS'minimalist-boost:split-10-and-vote, false'
p384
I114
sS'HyperPipes_weka_nominal, false'
p385
I115
sS'RBFNetwork_weka_nominal, true'
p386
I123
sS'liblinear-s6-B1, true'
p387
I116
sS'nn-ruby, false'
p388
I117
sS'svmlight_multiclass, true'
p389
I83
sS'AttributeSelectedClassifier_weka_nominal, false'
p390
I119
sS'SimpleCart_weka_nominal, false'
p391
I120
sS'OrdinalClassClassifier_weka_nominal, false'
p392
I92
sS'simple-naive-bayes, false'
p393
I122
sS'RotationForest_weka_nominal, false'
p394
I99
sS'svmlight-linear, true'
p395
I124
sS'VFI_weka_nominal, false'
p396
I104
sS'ClassificationViaRegression_weka_nominal, false'
p397
I126
sS'IB1_weka_nominal, false'
p398
I127
sS'liblinear-s6-B1, false'
p399
I128
sS'SelfTrainer, false'
p400
I129
sS'END_weka_nominal, false'
p401
I130
sa(dp402
S'thyroid-allrep'
p403
I3
sS'isolet'
p404
I4
sS'random'
p405
I7
sS'new york traffic 2008 all hours 7 days more readings'
p406
I8
sS'mit-bih-arrhythmia'
p407
I10
sS'heart-disease-hungarian'
p408
I14
sS'thyroid-sick'
p409
I17
sS'blakhol_mc_test_5'
p410
I19
sS'statlog-german'
p411
I20
sS'arcene2'
p412
I21
sS'vowel-context'
p413
I22
sS'pssmOfprotein'
p414
I32
sS'new york traffic 2008 6pm all days'
p415
I25
sS'Dif'
p416
I27
sS'jwr-products-2010-07-05'
p417
I29
sS'credit-screening'
p418
I33
sS'breast-cancer'
p419
I34
sS'monks-1'
p420
I41
sS'monks-2'
p421
I42
sS'monks-3'
p422
I43
sS'balance-scale'
p423
I44
sS'simple-dataset-elo'
p424
I46
sS'sonar'
p425
I50
sS'breast-cancer-wdbc'
p426
I51
sS'thyroid-euthyroid'
p427
I99
sS'HIV identification_1'
p428
I54
sS'voting-records'
p429
I55
sS'shuttle-landing-control'
p430
I56
sS'molecular-biology-splice'
p431
I58
sS'Easy'
p432
I61
sS'neut_1..01.tiny'
p433
I62
sS'breast-cancer-wisconsin'
p434
I107
sS'molecular-biology-promoters'
p435
I64
sS'statlog-segment'
p436
I65
sS'transientsClassification'
p437
I67
sS'sample-dataset2'
p438
I68
sS'new york traffic 2008 6pm'
p439
I5
sS'hepatitis'
p440
I71
sS'heart-disease-cleveland'
p441
I13
sS'waveform'
p442
I74
sS'thyroid-allbp'
p443
I76
sS'simple-dataset'
p444
I80
sS'thyroid-0387'
p445
I81
sS'heart-disease-va'
p446
I82
sS'sample-dataset'
p447
I85
sS'utterance-classification-manual'
p448
I86
sS'page-blocks'
p449
I87
sS'musk-1'
p450
I90
sS'musk-2'
p451
I91
sS'neut_1..02.tiny'
p452
I92
sS'iris'
p453
I95
sS'neut_0..02.tiny'
p454
I98
sS'statlog-vehicle'
p455
I106
sS'NY Traffic R11 2008 Weekday/Weekend popular roads normalized'
p456
I28
sS'lenses'
p457
I110
sS'test_fromwebsite'
p458
I1
sS'utterance-classification-asr'
p459
I2
sS'image'
p460
I6
sS'chess-krk'
p461
I9
sS'soybean'
p462
I12
sS'statlog-heart'
p463
I94
sS'input_for_eur_usd_pred'
p464
I15
sS'clinical_wsd'
p465
I16
sS'connect-4'
p466
I18
sS'horse-colic'
p467
I23
sS'waveform-noise'
p468
I24
sS'mushroom'
p469
I26
sS'neut_1..005.tiny'
p470
I40
sS'new york traffic 2008 all hours 7 days'
p471
I66
sS'glass'
p472
I31
sS'jakefootball'
p473
I77
sS'thyroid-hypothyroid'
p474
I35
sS'manhattan_traffic'
p475
I36
sS'testamal'
p476
I37
sS'blakhol_mc_test_5000'
p477
I38
sS'neut_0..005.tiny'
p478
I39
sS'multiclass-sample'
p479
I45
sS'thyroid-allhypo'
p480
I47
sS'breast-cancer-wpbc'
p481
I48
sS'statlog-shuttle'
p482
I49
sS'lymphography'
p483
I52
sS'thyroid-dis'
p484
I53
sS'new york traffic 2008 6pm 7 days'
p485
I57
sS'ionosphere'
p486
I59
sS'neut_0..01.tiny'
p487
I60
sS'chess-krkp'
p488
I102
sS'letter-recognition'
p489
I70
sS'lung-cancer'
p490
I11
sS'tic-tac-toe'
p491
I72
sS'Raw@rite'
p492
I73
sS'NY Traffic R11 2008 all days popular roads normalized with s'
p493
I75
sS'DataTest2H1'
p494
I78
sS'jake-lungcancer-copy'
p495
I79
sS'statlog-satimage'
p496
I83
sS'statlog-australian'
p497
I84
sS'pima-indians-diabetes'
p498
I89
sS'thyroid-new'
p499
I63
sS'thyroid-ann'
p500
I93
sS'postoperative-patient-data'
p501
I30
sS'mnistSmall'
p502
I96
sS'primary-tumor'
p503
I97
sS'SleepdataMulti'
p504
I100
sS'testfromwebsite'
p505
I101
sS'ContactLenses'
p506
I69
sS'annealing'
p507
I103
sS'flags'
p508
I104
sS'trains'
p509
I105
sS'hayes-roth'
p510
I88
sS'heart-disease-switzerland'
p511
I108
sS'thyroid-allhyper'
p512
I109
sS'wine'
p513
I111
sasS'WordSegmentation'
p514
(lp515
(dp516
S'word-segmentation-separate, false'
p517
I1
sS'word-segmentation-phonetic-features, false'
p518
I2
sa(dp519
S'br-phono'
p520
I1
sS'br-text'
p521
I2
sS'chinese-seg-as-100k'
p522
I3
sS'word-segmentation-sample'
p523
I4
sasS'BinaryClassification'
p524
(lp525
(dp526
S'simple-naive-bayes, false'
p527
I80
sS'svmlight-rbf, true'
p528
I2
sS'RandomTree_weka_nominal, false'
p529
I3
sS'tinyclassifier-pkperceptron-2-tuning, false'
p530
I5
sS'IBk_weka_nominal, true'
p531
I9
sS'BayesNet_weka_nominal, true'
p532
I10
sS'FLR_weka_nominal, false'
p533
I63
sS'Auto_MLP, false'
p534
I13
sS'BayesNet_weka_nominal, false'
p535
I14
sS'ADTree_weka_nominal, false'
p536
I15
sS'LogitBoost_weka_nominal, false'
p537
I17
sS'LogitBoost_weka_nominal, true'
p538
I18
sS'RotationForest_weka_nominal, true'
p539
I19
sS'MultiClassClassifier_weka_nominal, false'
p540
I20
sS'DecisionStump_weka_nominal, false'
p541
I23
sS'Auto_MLP, true'
p542
I24
sS'VotedPerceptron_weka_nominal, true'
p543
I26
sS'NBTree_weka_nominal, false'
p544
I27
sS'MultiScheme_weka_nominal, false'
p545
I28
sS'DMNBtext_weka_nominal, false'
p546
I12
sS'nn-ruby, true'
p547
I30
sS'JRip_weka_nominal, false'
p548
I31
sS'GNB, true'
p549
I33
sS'FT_weka_nominal, false'
p550
I50
sS'svmlight_multiclass, false'
p551
I37
sS'AdaBoostM1_weka_nominal, true'
p552
I58
sS'SMO_weka_nominal, true'
p553
I61
sS'svmlight_multiclass-linear, false'
p554
I69
sS'bolt-sgd-binary, false'
p555
I73
sS'Ridor_weka_nominal, false'
p556
I48
sS'Naive Bayes - Eugene Ma, false'
p557
I49
sS'LWL_weka_nominal, false'
p558
I51
sS'tinyclassifier-pkperceptron-2-tuning, true'
p559
I52
sS'BayesianLogisticRegression_weka_nominal, true'
p560
I76
sS'svmlight-linear, true'
p561
I55
sS'IBk_weka_nominal, false'
p562
I56
sS'SMO_weka_nominal, false'
p563
I57
sS'minimalist-boost, false'
p564
I60
sS'minimalist-boost, true'
p565
I65
sS'AdaBoostM1_weka_nominal, false'
p566
I66
sS'svmlight_multiclass-linear, true'
p567
I68
sS'KStar_weka_nominal, false'
p568
I82
sS'ConjunctiveRule_weka_nominal, false'
p569
I70
sS'ZeroR_weka_nominal, false'
p570
I72
sS'FilteredClassifier_weka_nominal, true'
p571
I78
sS'J48graft_weka_nominal, false'
p572
I62
sS'svmlight-linear2, false'
p573
I81
sS'mira-python-normalize, false'
p574
I35
sS'Vote_weka_nominal, false'
p575
I84
sS'svmlight-linear, false'
p576
I89
sS'J48_weka_nominal, false'
p577
I86
sS'perceptron_by_jake, false'
p578
I91
sS'boostexter, false'
p579
I92
sS'VotedPerceptron_weka_nominal, false'
p580
I93
sS'svmlight-linear2, true'
p581
I94
sS'EnsembleSelection_weka_nominal, false'
p582
I1
sS'ThresholdSelector_weka_nominal, false'
p583
I4
sS'DecisionTable_weka_nominal, false'
p584
I6
sS'reverse-naive-bayes, false'
p585
I7
sS'Naive Bayes - Eugene Ma, true'
p586
I8
sS'PART_weka_nominal, false'
p587
I11
sS'FilteredClassifier_weka_nominal, false'
p588
I16
sS'perceptron_by_jake, true'
p589
I21
sS'RandomTree_weka_nominal, true'
p590
I41
sS'RacedIncrementalLogitBoost_weka_nominal, false'
p591
I22
sS'simple-naive-bayes, true'
p592
I25
sS'mira-python, false'
p593
I29
sS'Logistic_weka_nominal, true'
p594
I32
sS'REPTree_weka_nominal, false'
p595
I34
sS'Logistic_weka_nominal, false'
p596
I36
sS'ClassificationViaClustering_weka_nominal, false'
p597
I38
sS'svmlight-rbf, false'
p598
I39
sS'boostexter, true'
p599
I40
sS'test, false'
p600
I43
sS'VFI_weka_nominal, false'
p601
I44
sS'BayesianLogisticRegression_weka_nominal, false'
p602
I45
sS'OneR_weka_nominal, false'
p603
I46
sS'tinyclassifier-perceptron-tuning, true'
p604
I47
sS'pmtk logreg L2, true'
p605
I42
sS'reverse-naive-bayes, true'
p606
I54
sS'RBFNetwork_weka_nominal, false'
p607
I59
sS'minimalist-boost:split-10-and-vote, false'
p608
I53
sS'HyperPipes_weka_nominal, false'
p609
I64
sS'liblinear-s6-B1, true'
p610
I67
sS'nn-ruby, false'
p611
I71
sS'MultilayerPerceptron_weka_nominal, false'
p612
I74
sS'tinyclassifier-perceptron-tuning, false'
p613
I75
sS'AttributeSelectedClassifier_weka_nominal, false'
p614
I77
sS'OrdinalClassClassifier_weka_nominal, false'
p615
I79
sS'RotationForest_weka_nominal, false'
p616
I83
sS'MultilayerPerceptron_weka_nominal, true'
p617
I85
sS'ClassificationViaRegression_weka_nominal, false'
p618
I87
sS'IB1_weka_nominal, false'
p619
I88
sS'liblinear-s6-B1, false'
p620
I90
sa(dp621
S'20 Features'
p622
I1
sS'fs73k_pn'
p623
I18
sS'uci-congressional-voting-records'
p624
I3
sS'ccs-challenge-dataset'
p625
I4
sS'neut_1.-.01'
p626
I5
sS'neut_1.-.02'
p627
I6
sS'userdata.svm.notemp'
p628
I7
sS'smd-f2'
p629
I8
sS'EuUnexamples000'
p630
I9
sS'tweets.svm.2k'
p631
I10
sS'neut_0.binary'
p632
I2
sS'Test Error'
p633
I12
sS'userdata.svm'
p634
I13
sS'neut_1.-.005.tiny'
p635
I14
sS'28 Features split'
p636
I15
sS'svmlight-example1'
p637
I16
sS'6Features Split files'
p638
I17
sS'SmallOnlyTwo'
p639
I19
sS'neut_0.-.005.tiny'
p640
I20
sS'FS'
p641
I11
sS'tweets.svm.20k'
p642
I21
sS'sft2'
p643
I22
sS'ablation.test.2008_2010.neut.binary'
p644
I23
sS'neut_0.-.01.tiny'
p645
I24
sS'neut_1.binary'
p646
I25
sS'neut_1.-.01.tiny'
p647
I47
sS'uci-parkinsons'
p648
I27
sS'Data_Shailendra'
p649
I29
sS'ER_s3_DUT'
p650
I30
sS'blakhol_bc_d8c57d79_e336_473d_a9e2_d581fda704e4'
p651
I49
sS'uci-promoters'
p652
I32
sS'F_6Features'
p653
I33
sS'neut_0.-.02.tiny'
p654
I34
sS'binary-sample'
p655
I35
sS'fs50k'
p656
I36
sS'tweet.svm.full'
p657
I42
sS'sparse-cnf'
p658
I38
sS'fs73k_fea'
p659
I39
sS'HIV identification'
p660
I40
sS'Dexter_train'
p661
I51
sS'Golf'
p662
I37
sS'blakhol_bc_test_5000'
p663
I43
sS'neut_0.-.02'
p664
I44
sS'neut_0.-.01'
p665
I45
sS'dummy dataset '
p666
I50
sS'twitter gender ID'
p667
I46
sS'hyperonym'
p668
I28
sS'neut_1.-.02.tiny'
p669
I48
sS'test8.svm'
p670
I31
sS'pascalvoc06car'
p671
I26
sS'forTestingOnly'
p672
I41
sS'pima_diabetes_uci'
p673
I52
sS'arcene_data'
p674
I53
sS'tweets.svm.40k'
p675
I54
sas.